; ModuleID = '41/1009.cpp'
source_filename = "41/1009.cpp"
target datalayout = "e-m:e-p270:32:32-p271:32:32-p272:64:64-i64:64-f80:128-n8:16:32:64-S128"
target triple = "x86_64-pc-linux-gnu"

%"class.std::ios_base::Init" = type { i8 }
%"class.std::basic_ostream" = type { i32 (...)**, %"class.std::basic_ios" }
%"class.std::basic_ios" = type { %"class.std::ios_base", %"class.std::basic_ostream"*, i8, i8, %"class.std::basic_streambuf"*, %"class.std::ctype"*, %"class.std::num_put"*, %"class.std::num_get"* }
%"class.std::ios_base" = type { i32 (...)**, i64, i64, i32, i32, i32, %"struct.std::ios_base::_Callback_list"*, %"struct.std::ios_base::_Words", [8 x %"struct.std::ios_base::_Words"], i32, %"struct.std::ios_base::_Words"*, %"class.std::locale" }
%"struct.std::ios_base::_Callback_list" = type { %"struct.std::ios_base::_Callback_list"*, void (i32, %"class.std::ios_base"*, i32)*, i32, i32 }
%"struct.std::ios_base::_Words" = type { i8*, i64 }
%"class.std::locale" = type { %"class.std::locale::_Impl"* }
%"class.std::locale::_Impl" = type { i32, %"class.std::locale::facet"**, i64, %"class.std::locale::facet"**, i8** }
%"class.std::locale::facet" = type <{ i32 (...)**, i32, [4 x i8] }>
%"class.std::basic_streambuf" = type { i32 (...)**, i8*, i8*, i8*, i8*, i8*, i8*, %"class.std::locale" }
%"class.std::ctype" = type <{ %"class.std::locale::facet.base", [4 x i8], %struct.__locale_struct*, i8, [7 x i8], i32*, i32*, i16*, i8, [256 x i8], [256 x i8], i8, [6 x i8] }>
%"class.std::locale::facet.base" = type <{ i32 (...)**, i32 }>
%struct.__locale_struct = type { [13 x %struct.__locale_data*], i16*, i32*, i32*, [13 x i8*] }
%struct.__locale_data = type opaque
%"class.std::num_put" = type { %"class.std::locale::facet.base", [4 x i8] }
%"class.std::num_get" = type { %"class.std::locale::facet.base", [4 x i8] }

@_ZStL8__ioinit = internal global %"class.std::ios_base::Init" zeroinitializer, align 1
@__dso_handle = external hidden global i8
@_ZSt4cout = external dso_local global %"class.std::basic_ostream", align 8
@.str = private unnamed_addr constant [2 x i8] c" \00", align 1
@llvm.global_ctors = appending global [1 x { i32, void ()*, i8* }] [{ i32, void ()*, i8* } { i32 65535, void ()* @_GLOBAL__sub_I_1009.cpp, i8* null }]

; Function Attrs: noinline uwtable
define internal void @__cxx_global_var_init() #0 section ".text.startup" {
  call void @_ZNSt8ios_base4InitC1Ev(%"class.std::ios_base::Init"* @_ZStL8__ioinit)
  %1 = call i32 @__cxa_atexit(void (i8*)* bitcast (void (%"class.std::ios_base::Init"*)* @_ZNSt8ios_base4InitD1Ev to void (i8*)*), i8* getelementptr inbounds (%"class.std::ios_base::Init", %"class.std::ios_base::Init"* @_ZStL8__ioinit, i32 0, i32 0), i8* @__dso_handle) #3
  ret void
}

declare dso_local void @_ZNSt8ios_base4InitC1Ev(%"class.std::ios_base::Init"*) unnamed_addr #1

; Function Attrs: nounwind
declare dso_local void @_ZNSt8ios_base4InitD1Ev(%"class.std::ios_base::Init"*) unnamed_addr #2

; Function Attrs: nounwind
declare dso_local i32 @__cxa_atexit(void (i8*)*, i8*, i8*) #3

; Function Attrs: noinline norecurse uwtable
define dso_local i32 @main() #4 {
  %1 = alloca i32, align 4
  %2 = alloca i32, align 4
  %3 = alloca i32, align 4
  %4 = alloca i32, align 4
  %5 = alloca i32, align 4
  %6 = alloca i32, align 4
  store i32 0, i32* %1, align 4
  store i32 1, i32* %2, align 4
  br label %7

7:                                                ; preds = %150, %0
  %8 = load i32, i32* %2, align 4
  %9 = icmp sle i32 %8, 5
  br i1 %9, label %10, label %153

10:                                               ; preds = %7
  store i32 1, i32* %3, align 4
  br label %11

11:                                               ; preds = %146, %10
  %12 = load i32, i32* %3, align 4
  %13 = icmp sle i32 %12, 5
  br i1 %13, label %14, label %149

14:                                               ; preds = %11
  store i32 1, i32* %4, align 4
  br label %15

15:                                               ; preds = %142, %14
  %16 = load i32, i32* %4, align 4
  %17 = icmp sle i32 %16, 5
  br i1 %17, label %18, label %145

18:                                               ; preds = %15
  store i32 1, i32* %5, align 4
  br label %19

19:                                               ; preds = %138, %18
  %20 = load i32, i32* %5, align 4
  %21 = icmp sle i32 %20, 5
  br i1 %21, label %22, label %141

22:                                               ; preds = %19
  store i32 4, i32* %6, align 4
  br label %23

23:                                               ; preds = %134, %22
  %24 = load i32, i32* %6, align 4
  %25 = icmp sle i32 %24, 5
  br i1 %25, label %26, label %137

26:                                               ; preds = %23
  %27 = load i32, i32* %2, align 4
  %28 = icmp eq i32 %27, 1
  br i1 %28, label %32, label %29

29:                                               ; preds = %26
  %30 = load i32, i32* %2, align 4
  %31 = icmp eq i32 %30, 2
  br i1 %31, label %32, label %33

32:                                               ; preds = %29, %26
  store i32 1, i32* %6, align 4
  br label %33

33:                                               ; preds = %32, %29
  %34 = load i32, i32* %3, align 4
  %35 = icmp eq i32 %34, 1
  br i1 %35, label %39, label %36

36:                                               ; preds = %33
  %37 = load i32, i32* %3, align 4
  %38 = icmp eq i32 %37, 2
  br i1 %38, label %39, label %40

39:                                               ; preds = %36, %33
  store i32 2, i32* %3, align 4
  br label %40

40:                                               ; preds = %39, %36
  %41 = load i32, i32* %4, align 4
  %42 = icmp eq i32 %41, 1
  br i1 %42, label %46, label %43

43:                                               ; preds = %40
  %44 = load i32, i32* %4, align 4
  %45 = icmp eq i32 %44, 2
  br i1 %45, label %46, label %47

46:                                               ; preds = %43, %40
  store i32 5, i32* %2, align 4
  br label %47

47:                                               ; preds = %46, %43
  %48 = load i32, i32* %5, align 4
  %49 = icmp eq i32 %48, 1
  br i1 %49, label %53, label %50

50:                                               ; preds = %47
  %51 = load i32, i32* %5, align 4
  %52 = icmp eq i32 %51, 2
  br i1 %52, label %53, label %56

53:                                               ; preds = %50, %47
  %54 = load i32, i32* %4, align 4
  %55 = icmp ne i32 %54, 1
  br label %56

56:                                               ; preds = %53, %50
  %57 = load i32, i32* %6, align 4
  %58 = icmp eq i32 %57, 1
  %59 = zext i1 %58 to i32
  %60 = load i32, i32* %3, align 4
  %61 = icmp eq i32 %60, 2
  %62 = zext i1 %61 to i32
  %63 = add nsw i32 %59, %62
  %64 = load i32, i32* %2, align 4
  %65 = icmp eq i32 %64, 5
  %66 = zext i1 %65 to i32
  %67 = add nsw i32 %63, %66
  %68 = load i32, i32* %4, align 4
  %69 = icmp ne i32 %68, 1
  %70 = zext i1 %69 to i32
  %71 = add nsw i32 %67, %70
  %72 = load i32, i32* %5, align 4
  %73 = icmp eq i32 %72, 1
  %74 = zext i1 %73 to i32
  %75 = add nsw i32 %71, %74
  %76 = icmp eq i32 %75, 2
  br i1 %76, label %77, label %133

77:                                               ; preds = %56
  %78 = load i32, i32* %2, align 4
  %79 = load i32, i32* %3, align 4
  %80 = icmp ne i32 %78, %79
  br i1 %80, label %81, label %133

81:                                               ; preds = %77
  %82 = load i32, i32* %2, align 4
  %83 = load i32, i32* %4, align 4
  %84 = icmp ne i32 %82, %83
  br i1 %84, label %85, label %133

85:                                               ; preds = %81
  %86 = load i32, i32* %2, align 4
  %87 = load i32, i32* %5, align 4
  %88 = icmp ne i32 %86, %87
  br i1 %88, label %89, label %133

89:                                               ; preds = %85
  %90 = load i32, i32* %2, align 4
  %91 = load i32, i32* %6, align 4
  %92 = icmp ne i32 %90, %91
  br i1 %92, label %93, label %133

93:                                               ; preds = %89
  %94 = load i32, i32* %3, align 4
  %95 = load i32, i32* %4, align 4
  %96 = icmp ne i32 %94, %95
  br i1 %96, label %97, label %133

97:                                               ; preds = %93
  %98 = load i32, i32* %3, align 4
  %99 = load i32, i32* %5, align 4
  %100 = icmp ne i32 %98, %99
  br i1 %100, label %101, label %133

101:                                              ; preds = %97
  %102 = load i32, i32* %3, align 4
  %103 = load i32, i32* %6, align 4
  %104 = icmp ne i32 %102, %103
  br i1 %104, label %105, label %133

105:                                              ; preds = %101
  %106 = load i32, i32* %4, align 4
  %107 = load i32, i32* %5, align 4
  %108 = icmp ne i32 %106, %107
  br i1 %108, label %109, label %133

109:                                              ; preds = %105
  %110 = load i32, i32* %4, align 4
  %111 = load i32, i32* %6, align 4
  %112 = icmp ne i32 %110, %111
  br i1 %112, label %113, label %133

113:                                              ; preds = %109
  %114 = load i32, i32* %5, align 4
  %115 = load i32, i32* %6, align 4
  %116 = icmp ne i32 %114, %115
  br i1 %116, label %117, label %133

117:                                              ; preds = %113
  %118 = load i32, i32* %2, align 4
  %119 = call dereferenceable(272) %"class.std::basic_ostream"* @_ZNSolsEi(%"class.std::basic_ostream"* @_ZSt4cout, i32 %118)
  %120 = call dereferenceable(272) %"class.std::basic_ostream"* @_ZStlsISt11char_traitsIcEERSt13basic_ostreamIcT_ES5_PKc(%"class.std::basic_ostream"* dereferenceable(272) %119, i8* getelementptr inbounds ([2 x i8], [2 x i8]* @.str, i64 0, i64 0))
  %121 = load i32, i32* %3, align 4
  %122 = call dereferenceable(272) %"class.std::basic_ostream"* @_ZNSolsEi(%"class.std::basic_ostream"* %120, i32 %121)
  %123 = call dereferenceable(272) %"class.std::basic_ostream"* @_ZStlsISt11char_traitsIcEERSt13basic_ostreamIcT_ES5_PKc(%"class.std::basic_ostream"* dereferenceable(272) %122, i8* getelementptr inbounds ([2 x i8], [2 x i8]* @.str, i64 0, i64 0))
  %124 = load i32, i32* %4, align 4
  %125 = call dereferenceable(272) %"class.std::basic_ostream"* @_ZNSolsEi(%"class.std::basic_ostream"* %123, i32 %124)
  %126 = call dereferenceable(272) %"class.std::basic_ostream"* @_ZStlsISt11char_traitsIcEERSt13basic_ostreamIcT_ES5_PKc(%"class.std::basic_ostream"* dereferenceable(272) %125, i8* getelementptr inbounds ([2 x i8], [2 x i8]* @.str, i64 0, i64 0))
  %127 = load i32, i32* %5, align 4
  %128 = call dereferenceable(272) %"class.std::basic_ostream"* @_ZNSolsEi(%"class.std::basic_ostream"* %126, i32 %127)
  %129 = call dereferenceable(272) %"class.std::basic_ostream"* @_ZStlsISt11char_traitsIcEERSt13basic_ostreamIcT_ES5_PKc(%"class.std::basic_ostream"* dereferenceable(272) %128, i8* getelementptr inbounds ([2 x i8], [2 x i8]* @.str, i64 0, i64 0))
  %130 = load i32, i32* %6, align 4
  %131 = call dereferenceable(272) %"class.std::basic_ostream"* @_ZNSolsEi(%"class.std::basic_ostream"* %129, i32 %130)
  %132 = call dereferenceable(272) %"class.std::basic_ostream"* @_ZNSolsEPFRSoS_E(%"class.std::basic_ostream"* %131, %"class.std::basic_ostream"* (%"class.std::basic_ostream"*)* @_ZSt4endlIcSt11char_traitsIcEERSt13basic_ostreamIT_T0_ES6_)
  br label %133

133:                                              ; preds = %117, %113, %109, %105, %101, %97, %93, %89, %85, %81, %77, %56
  br label %134

134:                                              ; preds = %133
  %135 = load i32, i32* %6, align 4
  %136 = add nsw i32 %135, 1
  store i32 %136, i32* %6, align 4
  br label %23

137:                                              ; preds = %23
  br label %138

138:                                              ; preds = %137
  %139 = load i32, i32* %5, align 4
  %140 = add nsw i32 %139, 1
  store i32 %140, i32* %5, align 4
  br label %19

141:                                              ; preds = %19
  br label %142

142:                                              ; preds = %141
  %143 = load i32, i32* %4, align 4
  %144 = add nsw i32 %143, 1
  store i32 %144, i32* %4, align 4
  br label %15

145:                                              ; preds = %15
  br label %146

146:                                              ; preds = %145
  %147 = load i32, i32* %3, align 4
  %148 = add nsw i32 %147, 1
  store i32 %148, i32* %3, align 4
  br label %11

149:                                              ; preds = %11
  br label %150

150:                                              ; preds = %149
  %151 = load i32, i32* %2, align 4
  %152 = add nsw i32 %151, 1
  store i32 %152, i32* %2, align 4
  br label %7

153:                                              ; preds = %7
  ret i32 0
}

declare dso_local dereferenceable(272) %"class.std::basic_ostream"* @_ZStlsISt11char_traitsIcEERSt13basic_ostreamIcT_ES5_PKc(%"class.std::basic_ostream"* dereferenceable(272), i8*) #1

declare dso_local dereferenceable(272) %"class.std::basic_ostream"* @_ZNSolsEi(%"class.std::basic_ostream"*, i32) #1

declare dso_local dereferenceable(272) %"class.std::basic_ostream"* @_ZNSolsEPFRSoS_E(%"class.std::basic_ostream"*, %"class.std::basic_ostream"* (%"class.std::basic_ostream"*)*) #1

declare dso_local dereferenceable(272) %"class.std::basic_ostream"* @_ZSt4endlIcSt11char_traitsIcEERSt13basic_ostreamIT_T0_ES6_(%"class.std::basic_ostream"* dereferenceable(272)) #1

; Function Attrs: noinline uwtable
define internal void @_GLOBAL__sub_I_1009.cpp() #0 section ".text.startup" {
  call void @__cxx_global_var_init()
  ret void
}


!llvm.module.flags = !{!0}
!llvm.ident = !{!1}

!0 = !{i32 1, !"wchar_size", i32 4}
!1 = !{!"clang version 10.0.0-4ubuntu1 "}
