; ModuleID = 'source-C-CXX/40/1009.cpp'
source_filename = "source-C-CXX/40/1009.cpp"
target datalayout = "e-m:e-p270:32:32-p271:32:32-p272:64:64-i64:64-f80:128-n8:16:32:64-S128"
target triple = "x86_64-pc-linux-gnu"

%"class.std::ios_base::Init" = type { i8 }
%"class.std::basic_ostream" = type { i32 (...)**, %"class.std::basic_ios" }
%"class.std::basic_ios" = type { %"class.std::ios_base", %"class.std::basic_ostream"*, i8, i8, %"class.std::basic_streambuf"*, %"class.std::ctype"*, %"class.std::num_put"*, %"class.std::num_get"* }
%"class.std::ios_base" = type { i32 (...)**, i64, i64, i32, i32, i32, %"struct.std::ios_base::_Callback_list"*, %"struct.std::ios_base::_Words", [8 x %"struct.std::ios_base::_Words"], i32, %"struct.std::ios_base::_Words"*, %"class.std::locale" }
%"struct.std::ios_base::_Callback_list" = type { %"struct.std::ios_base::_Callback_list"*, void (i32, %"class.std::ios_base"*, i32)*, i32, i32 }
%"struct.std::ios_base::_Words" = type { i8*, i64 }
%"class.std::locale" = type { %"class.std::locale::_Impl"* }
%"class.std::locale::_Impl" = type { i32, %"class.std::locale::facet"**, i64, %"class.std::locale::facet"**, i8** }
%"class.std::locale::facet" = type <{ i32 (...)**, i32, [4 x i8] }>
%"class.std::basic_streambuf" = type { i32 (...)**, i8*, i8*, i8*, i8*, i8*, i8*, %"class.std::locale" }
%"class.std::ctype" = type <{ %"class.std::locale::facet.base", [4 x i8], %struct.__locale_struct*, i8, [7 x i8], i32*, i32*, i16*, i8, [256 x i8], [256 x i8], i8, [6 x i8] }>
%"class.std::locale::facet.base" = type <{ i32 (...)**, i32 }>
%struct.__locale_struct = type { [13 x %struct.__locale_data*], i16*, i32*, i32*, [13 x i8*] }
%struct.__locale_data = type opaque
%"class.std::num_put" = type { %"class.std::locale::facet.base", [4 x i8] }
%"class.std::num_get" = type { %"class.std::locale::facet.base", [4 x i8] }

@_ZStL8__ioinit = internal global %"class.std::ios_base::Init" zeroinitializer, align 1
@__dso_handle = external hidden global i8
@_ZSt4cout = external global %"class.std::basic_ostream", align 8
@.str = private unnamed_addr constant [2 x i8] c" \00", align 1
@llvm.global_ctors = appending global [1 x { i32, void ()*, i8* }] [{ i32, void ()*, i8* } { i32 65535, void ()* @_GLOBAL__sub_I_1009.cpp, i8* null }]

declare void @_ZNSt8ios_base4InitC1Ev(%"class.std::ios_base::Init"* nonnull align 1 dereferenceable(1)) unnamed_addr #0

; Function Attrs: nounwind
declare void @_ZNSt8ios_base4InitD1Ev(%"class.std::ios_base::Init"* nonnull align 1 dereferenceable(1)) unnamed_addr #1

; Function Attrs: nofree nounwind
declare i32 @__cxa_atexit(void (i8*)*, i8*, i8*) local_unnamed_addr #2

; Function Attrs: mustprogress norecurse sspstrong uwtable
define dso_local i32 @main() local_unnamed_addr #3 {
  br label %1

1:                                                ; preds = %119, %0
  %2 = phi i32 [ 1, %0 ], [ %120, %119 ]
  %3 = phi i32 [ 1, %0 ], [ %121, %119 ]
  %4 = phi i32 [ 1, %0 ], [ %122, %119 ]
  %5 = add nsw i32 %2, -1
  %6 = icmp ult i32 %5, 2
  %7 = icmp ne i32 %2, 1
  %8 = zext i1 %7 to i32
  br label %9

9:                                                ; preds = %1, %111
  %10 = phi i32 [ 1, %1 ], [ %114, %111 ]
  %11 = phi i32 [ %3, %1 ], [ %113, %111 ]
  %12 = phi i32 [ %4, %1 ], [ %112, %111 ]
  %13 = icmp eq i32 %10, 1
  %14 = zext i1 %13 to i32
  %15 = add nuw nsw i32 %14, %8
  %16 = icmp eq i32 %2, %10
  br i1 %16, label %17, label %30

17:                                               ; preds = %9, %17
  %18 = phi i32 [ %28, %17 ], [ 4, %9 ]
  %19 = phi i32 [ %24, %17 ], [ %11, %9 ]
  %20 = phi i32 [ %25, %17 ], [ %12, %9 ]
  %21 = add i32 %20, -1
  %22 = add i32 %19, -1
  %23 = icmp ult i32 %22, 2
  %24 = select i1 %23, i32 2, i32 %19
  %25 = select i1 %6, i32 5, i32 %20
  %26 = add nsw i32 %18, 1
  %27 = icmp ult i32 %21, 2
  %28 = select i1 %27, i32 2, i32 %26
  %29 = icmp slt i32 %28, 6
  br i1 %29, label %17, label %111, !llvm.loop !5

30:                                               ; preds = %9, %108
  %31 = phi i32 [ %109, %108 ], [ 4, %9 ]
  %32 = phi i32 [ %39, %108 ], [ %11, %9 ]
  %33 = phi i32 [ %40, %108 ], [ %12, %9 ]
  %34 = add i32 %33, -1
  %35 = icmp ugt i32 %34, 1
  %36 = select i1 %35, i32 %31, i32 1
  %37 = add i32 %32, -1
  %38 = icmp ult i32 %37, 2
  %39 = select i1 %38, i32 2, i32 %32
  %40 = select i1 %6, i32 5, i32 %33
  %41 = icmp eq i32 %36, 1
  %42 = zext i1 %41 to i32
  %43 = icmp eq i32 %39, 2
  %44 = zext i1 %43 to i32
  %45 = icmp eq i32 %40, 5
  %46 = zext i1 %45 to i32
  %47 = add nuw nsw i32 %15, %46
  %48 = add nuw nsw i32 %47, %42
  %49 = add nuw nsw i32 %48, %44
  %50 = icmp ne i32 %49, 2
  %51 = icmp eq i32 %40, %39
  %52 = select i1 %50, i1 true, i1 %51
  %53 = icmp eq i32 %40, %2
  %54 = select i1 %52, i1 true, i1 %53
  %55 = icmp eq i32 %40, %10
  %56 = select i1 %54, i1 true, i1 %55
  %57 = icmp eq i32 %40, %36
  %58 = select i1 %56, i1 true, i1 %57
  %59 = icmp eq i32 %39, %2
  %60 = select i1 %58, i1 true, i1 %59
  %61 = icmp eq i32 %39, %10
  %62 = select i1 %60, i1 true, i1 %61
  %63 = icmp eq i32 %39, %36
  %64 = select i1 %62, i1 true, i1 %63
  %65 = icmp eq i32 %2, %36
  %66 = select i1 %64, i1 true, i1 %65
  %67 = icmp eq i32 %10, %36
  %68 = select i1 %66, i1 true, i1 %67
  br i1 %68, label %108, label %69

69:                                               ; preds = %30
  %70 = tail call nonnull align 8 dereferenceable(8) %"class.std::basic_ostream"* @_ZNSolsEi(%"class.std::basic_ostream"* nonnull align 8 dereferenceable(8) @_ZSt4cout, i32 %40)
  %71 = tail call nonnull align 8 dereferenceable(8) %"class.std::basic_ostream"* @_ZSt16__ostream_insertIcSt11char_traitsIcEERSt13basic_ostreamIT_T0_ES6_PKS3_l(%"class.std::basic_ostream"* nonnull align 8 dereferenceable(8) %70, i8* nonnull getelementptr inbounds ([2 x i8], [2 x i8]* @.str, i64 0, i64 0), i64 1)
  %72 = tail call nonnull align 8 dereferenceable(8) %"class.std::basic_ostream"* @_ZNSolsEi(%"class.std::basic_ostream"* nonnull align 8 dereferenceable(8) %70, i32 %39)
  %73 = tail call nonnull align 8 dereferenceable(8) %"class.std::basic_ostream"* @_ZSt16__ostream_insertIcSt11char_traitsIcEERSt13basic_ostreamIT_T0_ES6_PKS3_l(%"class.std::basic_ostream"* nonnull align 8 dereferenceable(8) %72, i8* nonnull getelementptr inbounds ([2 x i8], [2 x i8]* @.str, i64 0, i64 0), i64 1)
  %74 = tail call nonnull align 8 dereferenceable(8) %"class.std::basic_ostream"* @_ZNSolsEi(%"class.std::basic_ostream"* nonnull align 8 dereferenceable(8) %72, i32 %2)
  %75 = tail call nonnull align 8 dereferenceable(8) %"class.std::basic_ostream"* @_ZSt16__ostream_insertIcSt11char_traitsIcEERSt13basic_ostreamIT_T0_ES6_PKS3_l(%"class.std::basic_ostream"* nonnull align 8 dereferenceable(8) %74, i8* nonnull getelementptr inbounds ([2 x i8], [2 x i8]* @.str, i64 0, i64 0), i64 1)
  %76 = tail call nonnull align 8 dereferenceable(8) %"class.std::basic_ostream"* @_ZNSolsEi(%"class.std::basic_ostream"* nonnull align 8 dereferenceable(8) %74, i32 %10)
  %77 = tail call nonnull align 8 dereferenceable(8) %"class.std::basic_ostream"* @_ZSt16__ostream_insertIcSt11char_traitsIcEERSt13basic_ostreamIT_T0_ES6_PKS3_l(%"class.std::basic_ostream"* nonnull align 8 dereferenceable(8) %76, i8* nonnull getelementptr inbounds ([2 x i8], [2 x i8]* @.str, i64 0, i64 0), i64 1)
  %78 = tail call nonnull align 8 dereferenceable(8) %"class.std::basic_ostream"* @_ZNSolsEi(%"class.std::basic_ostream"* nonnull align 8 dereferenceable(8) %76, i32 %36)
  %79 = bitcast %"class.std::basic_ostream"* %78 to i8**
  %80 = load i8*, i8** %79, align 8, !tbaa !7
  %81 = getelementptr i8, i8* %80, i64 -24
  %82 = bitcast i8* %81 to i64*
  %83 = load i64, i64* %82, align 8
  %84 = bitcast %"class.std::basic_ostream"* %78 to i8*
  %85 = add nsw i64 %83, 240
  %86 = getelementptr inbounds i8, i8* %84, i64 %85
  %87 = bitcast i8* %86 to %"class.std::ctype"**
  %88 = load %"class.std::ctype"*, %"class.std::ctype"** %87, align 8, !tbaa !10
  %89 = icmp eq %"class.std::ctype"* %88, null
  br i1 %89, label %90, label %91

90:                                               ; preds = %69
  tail call void @_ZSt16__throw_bad_castv() #6
  unreachable

91:                                               ; preds = %69
  %92 = getelementptr inbounds %"class.std::ctype", %"class.std::ctype"* %88, i64 0, i32 8
  %93 = load i8, i8* %92, align 8, !tbaa !15
  %94 = icmp eq i8 %93, 0
  br i1 %94, label %98, label %95

95:                                               ; preds = %91
  %96 = getelementptr inbounds %"class.std::ctype", %"class.std::ctype"* %88, i64 0, i32 9, i64 10
  %97 = load i8, i8* %96, align 1, !tbaa !17
  br label %104

98:                                               ; preds = %91
  tail call void @_ZNKSt5ctypeIcE13_M_widen_initEv(%"class.std::ctype"* nonnull align 8 dereferenceable(570) %88)
  %99 = bitcast %"class.std::ctype"* %88 to i8 (%"class.std::ctype"*, i8)***
  %100 = load i8 (%"class.std::ctype"*, i8)**, i8 (%"class.std::ctype"*, i8)*** %99, align 8, !tbaa !7
  %101 = getelementptr inbounds i8 (%"class.std::ctype"*, i8)*, i8 (%"class.std::ctype"*, i8)** %100, i64 6
  %102 = load i8 (%"class.std::ctype"*, i8)*, i8 (%"class.std::ctype"*, i8)** %101, align 8
  %103 = tail call signext i8 %102(%"class.std::ctype"* nonnull align 8 dereferenceable(570) %88, i8 signext 10)
  br label %104

104:                                              ; preds = %95, %98
  %105 = phi i8 [ %97, %95 ], [ %103, %98 ]
  %106 = tail call nonnull align 8 dereferenceable(8) %"class.std::basic_ostream"* @_ZNSo3putEc(%"class.std::basic_ostream"* nonnull align 8 dereferenceable(8) %78, i8 signext %105)
  %107 = tail call nonnull align 8 dereferenceable(8) %"class.std::basic_ostream"* @_ZNSo5flushEv(%"class.std::basic_ostream"* nonnull align 8 dereferenceable(8) %106)
  br label %108

108:                                              ; preds = %30, %104
  %109 = add nsw i32 %36, 1
  %110 = icmp slt i32 %36, 5
  br i1 %110, label %30, label %111, !llvm.loop !5

111:                                              ; preds = %108, %17
  %112 = phi i32 [ %25, %17 ], [ %40, %108 ]
  %113 = phi i32 [ %24, %17 ], [ %39, %108 ]
  %114 = add nuw nsw i32 %10, 1
  %115 = icmp eq i32 %114, 6
  br i1 %115, label %116, label %9, !llvm.loop !18

116:                                              ; preds = %111
  %117 = add nuw nsw i32 %2, 1
  %118 = icmp eq i32 %117, 6
  br i1 %118, label %123, label %119

119:                                              ; preds = %116, %126, %123
  %120 = phi i32 [ %117, %116 ], [ 1, %126 ], [ 1, %123 ]
  %121 = phi i32 [ %113, %116 ], [ 1, %126 ], [ %124, %123 ]
  %122 = phi i32 [ %112, %116 ], [ %127, %126 ], [ %112, %123 ]
  br label %1, !llvm.loop !19

123:                                              ; preds = %116
  %124 = add nsw i32 %113, 1
  %125 = icmp slt i32 %113, 5
  br i1 %125, label %119, label %126

126:                                              ; preds = %123
  %127 = add nsw i32 %112, 1
  %128 = icmp slt i32 %112, 5
  br i1 %128, label %119, label %129

129:                                              ; preds = %126
  ret i32 0
}

declare nonnull align 8 dereferenceable(8) %"class.std::basic_ostream"* @_ZNSolsEi(%"class.std::basic_ostream"* nonnull align 8 dereferenceable(8), i32) local_unnamed_addr #0

declare nonnull align 8 dereferenceable(8) %"class.std::basic_ostream"* @_ZSt16__ostream_insertIcSt11char_traitsIcEERSt13basic_ostreamIT_T0_ES6_PKS3_l(%"class.std::basic_ostream"* nonnull align 8 dereferenceable(8), i8*, i64) local_unnamed_addr #0

declare nonnull align 8 dereferenceable(8) %"class.std::basic_ostream"* @_ZNSo3putEc(%"class.std::basic_ostream"* nonnull align 8 dereferenceable(8), i8 signext) local_unnamed_addr #0

declare nonnull align 8 dereferenceable(8) %"class.std::basic_ostream"* @_ZNSo5flushEv(%"class.std::basic_ostream"* nonnull align 8 dereferenceable(8)) local_unnamed_addr #0

; Function Attrs: noreturn
declare void @_ZSt16__throw_bad_castv() local_unnamed_addr #4

declare void @_ZNKSt5ctypeIcE13_M_widen_initEv(%"class.std::ctype"* nonnull align 8 dereferenceable(570)) local_unnamed_addr #0

; Function Attrs: sspstrong uwtable
define internal void @_GLOBAL__sub_I_1009.cpp() #5 section ".text.startup" {
  tail call void @_ZNSt8ios_base4InitC1Ev(%"class.std::ios_base::Init"* nonnull align 1 dereferenceable(1) @_ZStL8__ioinit)
  %1 = tail call i32 @__cxa_atexit(void (i8*)* bitcast (void (%"class.std::ios_base::Init"*)* @_ZNSt8ios_base4InitD1Ev to void (i8*)*), i8* getelementptr inbounds (%"class.std::ios_base::Init", %"class.std::ios_base::Init"* @_ZStL8__ioinit, i64 0, i32 0), i8* nonnull @__dso_handle) #7
  ret void
}


!llvm.module.flags = !{!0, !1, !2, !3}
!llvm.ident = !{!4}

!0 = !{i32 1, !"wchar_size", i32 4}
!1 = !{i32 7, !"PIC Level", i32 2}
!2 = !{i32 7, !"PIE Level", i32 2}
!3 = !{i32 7, !"uwtable", i32 1}
!4 = !{!"clang version 13.0.0"}
!5 = distinct !{!5, !6}
!6 = !{!"llvm.loop.mustprogress"}
!7 = !{!8, !8, i64 0}
!8 = !{!"vtable pointer", !9, i64 0}
!9 = !{!"Simple C++ TBAA"}
!10 = !{!11, !12, i64 240}
!11 = !{!"_ZTSSt9basic_iosIcSt11char_traitsIcEE", !12, i64 216, !13, i64 224, !14, i64 225, !12, i64 232, !12, i64 240, !12, i64 248, !12, i64 256}
!12 = !{!"any pointer", !13, i64 0}
!13 = !{!"omnipotent char", !9, i64 0}
!14 = !{!"bool", !13, i64 0}
!15 = !{!16, !13, i64 56}
!16 = !{!"_ZTSSt5ctypeIcE", !12, i64 16, !14, i64 24, !12, i64 32, !12, i64 40, !12, i64 48, !13, i64 56, !13, i64 57, !13, i64 313, !13, i64 569}
!17 = !{!13, !13, i64 0}
!18 = distinct !{!18, !6}
!19 = distinct !{!19, !6}
